target datalayout = "e-m:e-p270:32:32-p271:32:32-p272:64:64-i64:64-i128:128-f80:128-n8:16:32:64-S128"
target triple = "x86_64-pc-linux-gnu"

%struct.AVEncryptionInitInfo = type { ptr, i32, ptr, i32, i32, ptr, i32, ptr }

; Function Attrs: alwaysinline nounwind willreturn memory(none) uwtable
define internal i32 @av_bswap32(i32 noundef %0) #4 {
  %2 = alloca i32, align 4
  store i32 %0, ptr %2, align 4, !tbaa !4
  %3 = load i32, ptr %2, align 4, !tbaa !4
  %4 = shl i32 %3, 8
  %5 = and i32 %4, 65280
  %6 = load i32, ptr %2, align 4, !tbaa !4
  %7 = lshr i32 %6, 8
  %8 = and i32 %7, 255
  %9 = or i32 %5, %8
  %10 = shl i32 %9, 16
  %11 = load i32, ptr %2, align 4, !tbaa !4
  %12 = lshr i32 %11, 16
  %13 = shl i32 %12, 8
  %14 = and i32 %13, 65280
  %15 = load i32, ptr %2, align 4, !tbaa !4
  %16 = lshr i32 %15, 16
  %17 = lshr i32 %16, 8
  %18 = and i32 %17, 255
  %19 = or i32 %14, %18
  %20 = or i32 %10, %19
  ret i32 %20
}

; Function Attrs: nounwind uwtable
define ptr @av_encryption_init_info_get_side_data(ptr noundef %0, i64 noundef %1) #0 {
  %3 = alloca ptr, align 8
  %4 = alloca ptr, align 8
  %5 = alloca i64, align 8
  %6 = alloca ptr, align 8
  %7 = alloca ptr, align 8
  %8 = alloca ptr, align 8
  %9 = alloca i64, align 8
  %10 = alloca i64, align 8
  %11 = alloca i64, align 8
  %12 = alloca i64, align 8
  %13 = alloca i64, align 8
  %14 = alloca i64, align 8
  %15 = alloca i64, align 8
  %16 = alloca i32, align 4
  store ptr %0, ptr %4, align 8, !tbaa !23
  store i64 %1, ptr %5, align 8, !tbaa !24
  call void @llvm.lifetime.start.p0(i64 8, ptr %6) #5
  store ptr null, ptr %6, align 8, !tbaa !35
  call void @llvm.lifetime.start.p0(i64 8, ptr %7) #5
  call void @llvm.lifetime.start.p0(i64 8, ptr %8) #5
  call void @llvm.lifetime.start.p0(i64 8, ptr %9) #5
  call void @llvm.lifetime.start.p0(i64 8, ptr %10) #5
  call void @llvm.lifetime.start.p0(i64 8, ptr %11) #5
  call void @llvm.lifetime.start.p0(i64 8, ptr %12) #5
  call void @llvm.lifetime.start.p0(i64 8, ptr %13) #5
  call void @llvm.lifetime.start.p0(i64 8, ptr %14) #5
  call void @llvm.lifetime.start.p0(i64 8, ptr %15) #5
  %17 = load ptr, ptr %4, align 8, !tbaa !23
  %18 = icmp ne ptr %17, null
  br i1 %18, label %19, label %22

19:                                               ; preds = %2
  %20 = load i64, ptr %5, align 8, !tbaa !24
  %21 = icmp ult i64 %20, 4
  br i1 %21, label %22, label %23

22:                                               ; preds = %19, %2
  store ptr null, ptr %3, align 8
  store i32 1, ptr %16, align 4
  br label %152

23:                                               ; preds = %19
  %24 = load ptr, ptr %4, align 8, !tbaa !23
  %25 = load i32, ptr %24, align 1, !tbaa !26
  %26 = call i32 @av_bswap32(i32 noundef %25) #6
  %27 = zext i32 %26 to i64
  store i64 %27, ptr %15, align 8, !tbaa !24
  %28 = load ptr, ptr %4, align 8, !tbaa !23
  %29 = getelementptr inbounds i8, ptr %28, i64 4
  store ptr %29, ptr %4, align 8, !tbaa !23
  %30 = load i64, ptr %5, align 8, !tbaa !24
  %31 = sub i64 %30, 4
  store i64 %31, ptr %5, align 8, !tbaa !24
  store i64 0, ptr %13, align 8, !tbaa !24
  br label %32

32:                                               ; preds = %147, %23
  %33 = load i64, ptr %13, align 8, !tbaa !24
  %34 = load i64, ptr %15, align 8, !tbaa !24
  %35 = icmp ult i64 %33, %34
  br i1 %35, label %36, label %150

36:                                               ; preds = %32
  %37 = load i64, ptr %5, align 8, !tbaa !24
  %38 = icmp ult i64 %37, 16
  br i1 %38, label %39, label %41

39:                                               ; preds = %36
  %40 = load ptr, ptr %6, align 8, !tbaa !35
  call void @av_encryption_init_info_free(ptr noundef %40)
  store ptr null, ptr %3, align 8
  store i32 1, ptr %16, align 4
  br label %152

41:                                               ; preds = %36
  %42 = load ptr, ptr %4, align 8, !tbaa !23
  %43 = load i32, ptr %42, align 1, !tbaa !26
  %44 = call i32 @av_bswap32(i32 noundef %43) #6
  %45 = zext i32 %44 to i64
  store i64 %45, ptr %9, align 8, !tbaa !24
  %46 = load ptr, ptr %4, align 8, !tbaa !23
  %47 = getelementptr inbounds i8, ptr %46, i64 4
  %48 = load i32, ptr %47, align 1, !tbaa !26
  %49 = call i32 @av_bswap32(i32 noundef %48) #6
  %50 = zext i32 %49 to i64
  store i64 %50, ptr %10, align 8, !tbaa !24
  %51 = load ptr, ptr %4, align 8, !tbaa !23
  %52 = getelementptr inbounds i8, ptr %51, i64 8
  %53 = load i32, ptr %52, align 1, !tbaa !26
  %54 = call i32 @av_bswap32(i32 noundef %53) #6
  %55 = zext i32 %54 to i64
  store i64 %55, ptr %11, align 8, !tbaa !24
  %56 = load ptr, ptr %4, align 8, !tbaa !23
  %57 = getelementptr inbounds i8, ptr %56, i64 12
  %58 = load i32, ptr %57, align 1, !tbaa !26
  %59 = call i32 @av_bswap32(i32 noundef %58) #6
  %60 = zext i32 %59 to i64
  store i64 %60, ptr %12, align 8, !tbaa !24
  %61 = load i64, ptr %5, align 8, !tbaa !24
  %62 = sub i64 %61, 16
  %63 = load i64, ptr %9, align 8, !tbaa !24
  %64 = load i64, ptr %12, align 8, !tbaa !24
  %65 = add i64 %63, %64
  %66 = load i64, ptr %10, align 8, !tbaa !24
  %67 = load i64, ptr %11, align 8, !tbaa !24
  %68 = mul i64 %66, %67
  %69 = add i64 %65, %68
  %70 = icmp ult i64 %62, %69
  br i1 %70, label %71, label %73

71:                                               ; preds = %41
  %72 = load ptr, ptr %6, align 8, !tbaa !35
  call void @av_encryption_init_info_free(ptr noundef %72)
  store ptr null, ptr %3, align 8
  store i32 1, ptr %16, align 4
  br label %152

73:                                               ; preds = %41
  %74 = load ptr, ptr %4, align 8, !tbaa !23
  %75 = getelementptr inbounds i8, ptr %74, i64 16
  store ptr %75, ptr %4, align 8, !tbaa !23
  %76 = load i64, ptr %5, align 8, !tbaa !24
  %77 = sub i64 %76, 16
  store i64 %77, ptr %5, align 8, !tbaa !24
  %78 = load i64, ptr %9, align 8, !tbaa !24
  %79 = trunc i64 %78 to i32
  %80 = load i64, ptr %10, align 8, !tbaa !24
  %81 = trunc i64 %80 to i32
  %82 = load i64, ptr %11, align 8, !tbaa !24
  %83 = trunc i64 %82 to i32
  %84 = load i64, ptr %12, align 8, !tbaa !24
  %85 = trunc i64 %84 to i32
  %86 = call ptr @av_encryption_init_info_alloc(i32 noundef %79, i32 noundef %81, i32 noundef %83, i32 noundef %85)
  store ptr %86, ptr %8, align 8, !tbaa !35
  %87 = load ptr, ptr %8, align 8, !tbaa !35
  %88 = icmp ne ptr %87, null
  br i1 %88, label %91, label %89

89:                                               ; preds = %73
  %90 = load ptr, ptr %6, align 8, !tbaa !35
  call void @av_encryption_init_info_free(ptr noundef %90)
  store ptr null, ptr %3, align 8
  store i32 1, ptr %16, align 4
  br label %152

91:                                               ; preds = %73
  %92 = load i64, ptr %13, align 8, !tbaa !24
  %93 = icmp eq i64 %92, 0
  br i1 %93, label %94, label %96

94:                                               ; preds = %91
  %95 = load ptr, ptr %8, align 8, !tbaa !35
  store ptr %95, ptr %6, align 8, !tbaa !35
  store ptr %95, ptr %7, align 8, !tbaa !35
  br label %101

96:                                               ; preds = %91
  %97 = load ptr, ptr %8, align 8, !tbaa !35
  %98 = load ptr, ptr %7, align 8, !tbaa !35
  %99 = getelementptr inbounds nuw %struct.AVEncryptionInitInfo, ptr %98, i32 0, i32 7
  store ptr %97, ptr %99, align 8, !tbaa !49
  %100 = load ptr, ptr %8, align 8, !tbaa !35
  store ptr %100, ptr %7, align 8, !tbaa !35
  br label %101

101:                                              ; preds = %96, %94
  %102 = load ptr, ptr %7, align 8, !tbaa !35
  %103 = getelementptr inbounds nuw %struct.AVEncryptionInitInfo, ptr %102, i32 0, i32 0
  %104 = load ptr, ptr %103, align 8, !tbaa !37
  %105 = load ptr, ptr %4, align 8, !tbaa !23
  %106 = load i64, ptr %9, align 8, !tbaa !24
  call void @llvm.memcpy.p0.p0.i64(ptr align 1 %104, ptr align 1 %105, i64 %106, i1 false)
  %107 = load i64, ptr %9, align 8, !tbaa !24
  %108 = load ptr, ptr %4, align 8, !tbaa !23
  %109 = getelementptr inbounds nuw i8, ptr %108, i64 %107
  store ptr %109, ptr %4, align 8, !tbaa !23
  %110 = load i64, ptr %9, align 8, !tbaa !24
  %111 = load i64, ptr %5, align 8, !tbaa !24
  %112 = sub i64 %111, %110
  store i64 %112, ptr %5, align 8, !tbaa !24
  store i64 0, ptr %14, align 8, !tbaa !24
  br label %113

113:                                              ; preds = %132, %101
  %114 = load i64, ptr %14, align 8, !tbaa !24
  %115 = load i64, ptr %10, align 8, !tbaa !24
  %116 = icmp ult i64 %114, %115
  br i1 %116, label %117, label %135

117:                                              ; preds = %113
  %118 = load ptr, ptr %7, align 8, !tbaa !35
  %119 = getelementptr inbounds nuw %struct.AVEncryptionInitInfo, ptr %118, i32 0, i32 2
  %120 = load ptr, ptr %119, align 8, !tbaa !42
  %121 = load i64, ptr %14, align 8, !tbaa !24
  %122 = getelementptr inbounds nuw ptr, ptr %120, i64 %121
  %123 = load ptr, ptr %122, align 8, !tbaa !23
  %124 = load ptr, ptr %4, align 8, !tbaa !23
  %125 = load i64, ptr %11, align 8, !tbaa !24
  call void @llvm.memcpy.p0.p0.i64(ptr align 1 %123, ptr align 1 %124, i64 %125, i1 false)
  %126 = load i64, ptr %11, align 8, !tbaa !24
  %127 = load ptr, ptr %4, align 8, !tbaa !23
  %128 = getelementptr inbounds nuw i8, ptr %127, i64 %126
  store ptr %128, ptr %4, align 8, !tbaa !23
  %129 = load i64, ptr %11, align 8, !tbaa !24
  %130 = load i64, ptr %5, align 8, !tbaa !24
  %131 = sub i64 %130, %129
  store i64 %131, ptr %5, align 8, !tbaa !24
  br label %132

132:                                              ; preds = %117
  %133 = load i64, ptr %14, align 8, !tbaa !24
  %134 = add i64 %133, 1
  store i64 %134, ptr %14, align 8, !tbaa !24
  br label %113, !llvm.loop !50

135:                                              ; preds = %113
  %136 = load ptr, ptr %7, align 8, !tbaa !35
  %137 = getelementptr inbounds nuw %struct.AVEncryptionInitInfo, ptr %136, i32 0, i32 5
  %138 = load ptr, ptr %137, align 8, !tbaa !45
  %139 = load ptr, ptr %4, align 8, !tbaa !23
  %140 = load i64, ptr %12, align 8, !tbaa !24
  call void @llvm.memcpy.p0.p0.i64(ptr align 1 %138, ptr align 1 %139, i64 %140, i1 false)
  %141 = load i64, ptr %12, align 8, !tbaa !24
  %142 = load ptr, ptr %4, align 8, !tbaa !23
  %143 = getelementptr inbounds nuw i8, ptr %142, i64 %141
  store ptr %143, ptr %4, align 8, !tbaa !23
  %144 = load i64, ptr %12, align 8, !tbaa !24
  %145 = load i64, ptr %5, align 8, !tbaa !24
  %146 = sub i64 %145, %144
  store i64 %146, ptr %5, align 8, !tbaa !24
  br label %147

147:                                              ; preds = %135
  %148 = load i64, ptr %13, align 8, !tbaa !24
  %149 = add i64 %148, 1
  store i64 %149, ptr %13, align 8, !tbaa !24
  br label %32, !llvm.loop !51

150:                                              ; preds = %32
  %151 = load ptr, ptr %6, align 8, !tbaa !35
  store ptr %151, ptr %3, align 8
  store i32 1, ptr %16, align 4
  br label %152

152:                                              ; preds = %150, %89, %71, %39, %22
  call void @llvm.lifetime.end.p0(i64 8, ptr %15) #5
  call void @llvm.lifetime.end.p0(i64 8, ptr %14) #5
  call void @llvm.lifetime.end.p0(i64 8, ptr %13) #5
  call void @llvm.lifetime.end.p0(i64 8, ptr %12) #5
  call void @llvm.lifetime.end.p0(i64 8, ptr %11) #5
  call void @llvm.lifetime.end.p0(i64 8, ptr %10) #5
  call void @llvm.lifetime.end.p0(i64 8, ptr %9) #5
  call void @llvm.lifetime.end.p0(i64 8, ptr %8) #5
  call void @llvm.lifetime.end.p0(i64 8, ptr %7) #5
  call void @llvm.lifetime.end.p0(i64 8, ptr %6) #5
  %153 = load ptr, ptr %3, align 8
  ret ptr %153
}