; Function Attrs: nounwind uwtable
define ptr @av_encryption_init_info_get_side_data(ptr noundef readonly captures(address_is_null) %0, i64 noundef %1) local_unnamed_addr #0 {
  %3 = icmp eq ptr %0, null
  %4 = icmp ult i64 %1, 4
  %or.cond = or i1 %3, %4
  br i1 %or.cond, label %.loopexit, label %5

5:                                                ; preds = %2
  %6 = load i32, ptr %0, align 1, !tbaa !20
  %.not88 = icmp eq i32 %6, 0
  br i1 %.not88, label %.loopexit, label %.lr.ph86.preheader

.lr.ph86.preheader:                               ; preds = %5
  %7 = add i64 %1, -4
  %8 = getelementptr inbounds nuw i8, ptr %0, i64 4
  %9 = tail call i32 @llvm.bswap.i32(i32 %6)
  %10 = tail call i32 @llvm.umax.i32(i32 %9, i32 1)
  %umax94 = zext i32 %10 to i64
  br label %.lr.ph86

.lr.ph86:                                         ; preds = %.lr.ph86.preheader, %._crit_edge
  %.06184 = phi i64 [ %56, %._crit_edge ], [ 0, %.lr.ph86.preheader ]
  %.06283 = phi ptr [ %54, %._crit_edge ], [ %8, %.lr.ph86.preheader ]
  %.06382 = phi i64 [ %55, %._crit_edge ], [ %7, %.lr.ph86.preheader ]
  %.06581 = phi ptr [ %.166, %._crit_edge ], [ null, %.lr.ph86.preheader ]
  %.06780 = phi ptr [ %35, %._crit_edge ], [ undef, %.lr.ph86.preheader ]
  %11 = icmp ult i64 %.06382, 16
  br i1 %11, label %.loopexit.sink.split, label %12

12:                                               ; preds = %.lr.ph86
  %13 = load i32, ptr %.06283, align 1, !tbaa !20
  %14 = tail call i32 @llvm.bswap.i32(i32 %13)
  %15 = zext i32 %14 to i64
  %16 = getelementptr inbounds nuw i8, ptr %.06283, i64 4
  %17 = load i32, ptr %16, align 1, !tbaa !20
  %18 = tail call i32 @llvm.bswap.i32(i32 %17)
  %19 = zext i32 %18 to i64
  %20 = getelementptr inbounds nuw i8, ptr %.06283, i64 8
  %21 = load i32, ptr %20, align 1, !tbaa !20
  %22 = tail call i32 @llvm.bswap.i32(i32 %21)
  %23 = zext i32 %22 to i64
  %24 = getelementptr inbounds nuw i8, ptr %.06283, i64 12
  %25 = load i32, ptr %24, align 1, !tbaa !20
  %26 = tail call i32 @llvm.bswap.i32(i32 %25)
  %27 = zext i32 %26 to i64
  %28 = add i64 %.06382, -16
  %29 = add nuw nsw i64 %27, %15
  %30 = mul nuw i64 %23, %19
  %31 = add nuw i64 %29, %30
  %32 = icmp ult i64 %28, %31
  br i1 %32, label %.loopexit.sink.split, label %33

33:                                               ; preds = %12
  %34 = getelementptr inbounds nuw i8, ptr %.06283, i64 16
  %35 = tail call ptr @av_encryption_init_info_alloc(i32 noundef %14, i32 noundef %18, i32 noundef %22, i32 noundef %26)
  %.not = icmp eq ptr %35, null
  br i1 %.not, label %.loopexit.sink.split, label %36

36:                                               ; preds = %33
  %37 = icmp eq i64 %.06184, 0
  br i1 %37, label %40, label %38

38:                                               ; preds = %36
  %39 = getelementptr inbounds nuw i8, ptr %.06780, i64 48
  store ptr %35, ptr %39, align 8, !tbaa !43
  br label %40

40:                                               ; preds = %36, %38
  %.166 = phi ptr [ %.06581, %38 ], [ %35, %36 ]
  %41 = load ptr, ptr %35, align 8, !tbaa !29
  tail call void @llvm.memcpy.p0.p0.i64(ptr align 1 %41, ptr nonnull align 1 %34, i64 %15, i1 false)
  %42 = getelementptr inbounds nuw i8, ptr %34, i64 %15
  %43 = sub i64 %28, %15
  %.not89 = icmp eq i32 %17, 0
  br i1 %.not89, label %._crit_edge, label %.lr.ph

.lr.ph:                                           ; preds = %40
  %44 = getelementptr inbounds nuw i8, ptr %35, i64 16
  %umax = tail call i64 @llvm.umax.i64(i64 %19, i64 1)
  br label %45

45:                                               ; preds = %.lr.ph, %45
  %.06078 = phi i64 [ 0, %.lr.ph ], [ %51, %45 ]
  %.177 = phi ptr [ %42, %.lr.ph ], [ %49, %45 ]
  %.16476 = phi i64 [ %43, %.lr.ph ], [ %50, %45 ]
  %46 = load ptr, ptr %44, align 8, !tbaa !35
  %47 = getelementptr inbounds nuw ptr, ptr %46, i64 %.06078
  %48 = load ptr, ptr %47, align 8, !tbaa !41
  tail call void @llvm.memcpy.p0.p0.i64(ptr align 1 %48, ptr align 1 %.177, i64 %23, i1 false)
  %49 = getelementptr inbounds nuw i8, ptr %.177, i64 %23
  %50 = sub i64 %.16476, %23
  %51 = add nuw nsw i64 %.06078, 1
  %exitcond.not = icmp eq i64 %51, %umax
  br i1 %exitcond.not, label %._crit_edge, label %45, !llvm.loop !44

._crit_edge:                                      ; preds = %45, %40
  %.164.lcssa = phi i64 [ %43, %40 ], [ %50, %45 ]
  %.1.lcssa = phi ptr [ %42, %40 ], [ %49, %45 ]
  %52 = getelementptr inbounds nuw i8, ptr %35, i64 32
  %53 = load ptr, ptr %52, align 8, !tbaa !38
  tail call void @llvm.memcpy.p0.p0.i64(ptr align 1 %53, ptr align 1 %.1.lcssa, i64 %27, i1 false)
  %54 = getelementptr inbounds nuw i8, ptr %.1.lcssa, i64 %27
  %55 = sub i64 %.164.lcssa, %27
  %56 = add nuw nsw i64 %.06184, 1
  %exitcond95.not = icmp eq i64 %56, %umax94
  br i1 %exitcond95.not, label %.loopexit, label %.lr.ph86, !llvm.loop !45

.loopexit.sink.split:                             ; preds = %33, %12, %.lr.ph86
  tail call void @av_encryption_init_info_free(ptr noundef %.06581)
  br label %.loopexit

.loopexit:                                        ; preds = %._crit_edge, %.loopexit.sink.split, %5, %2
  %.0 = phi ptr [ null, %2 ], [ null, %5 ], [ null, %.loopexit.sink.split ], [ %.166, %._crit_edge ]
  ret ptr %.0
}